target datalayout = "e-m:e-p270:32:32-p271:32:32-p272:64:64-i64:64-i128:128-f80:128-n8:16:32:64-S128"
target triple = "x86_64-pc-linux-gnu"

%"struct.pkpy::Type" = type { i16 }
%"struct.pkpy::PyObject" = type { ptr, i8, i8, %"struct.pkpy::Type", ptr }
%class.anon.492 = type { i8 }
%"struct.pkpy::ArgsView" = type { ptr, ptr }
%"struct.pkpy::Py_.633" = type { %"struct.pkpy::PyObject", %"struct.pkpy::Slice" }
%"struct.pkpy::Slice" = type { ptr, ptr, ptr }

@_ZN4pkpy2VM6tp_intE = linkonce_odr constant %"struct.pkpy::Type" { i16 2 }, comdat, align 2
@__const._ZN4pkpy18_py_cast__internalIRNS_5SliceELb1EEET_PNS_2VMEPNS_8PyObjectE.const_type = private unnamed_addr constant %"struct.pkpy::Type" { i16 8 }, align 2

; Function Attrs: mustprogress nounwind uwtable
define linkonce_odr noundef zeroext i1 @_ZNK4pkpy4TypeeqES0_(ptr noundef nonnull align 2 dereferenceable(2) %0, i16 %1) #5 comdat align 2 {
  %3 = alloca %"struct.pkpy::Type", align 2
  %4 = alloca ptr, align 8
  %5 = getelementptr inbounds %"struct.pkpy::Type", ptr %3, i32 0, i32 0
  store i16 %1, ptr %5, align 2
  store ptr %0, ptr %4, align 8
  %6 = load ptr, ptr %4, align 8
  %7 = getelementptr inbounds %"struct.pkpy::Type", ptr %6, i32 0, i32 0
  %8 = load i16, ptr %7, align 2
  %9 = sext i16 %8 to i32
  %10 = getelementptr inbounds %"struct.pkpy::Type", ptr %3, i32 0, i32 0
  %11 = load i16, ptr %10, align 2
  %12 = sext i16 %11 to i32
  %13 = icmp eq i32 %9, %12
  ret i1 %13
}

; Function Attrs: mustprogress nounwind uwtable
define linkonce_odr noundef zeroext i1 @_ZN4pkpy12is_small_intEPNS_8PyObjectE(ptr noundef %0) #5 comdat {
  %2 = alloca ptr, align 8
  store ptr %0, ptr %2, align 8
  %3 = load ptr, ptr %2, align 8
  %4 = ptrtoint ptr %3 to i64
  %5 = and i64 %4, 3
  %6 = icmp eq i64 %5, 2
  ret i1 %6
}

; Function Attrs: mustprogress nounwind uwtable
define linkonce_odr i16 @_ZN4pkpy2VM3_tpEPNS_8PyObjectE(ptr noundef nonnull align 8 dereferenceable(264913) %0, ptr noundef %1) #5 comdat align 2 {
  %3 = alloca %"struct.pkpy::Type", align 2
  %4 = alloca ptr, align 8
  %5 = alloca ptr, align 8
  store ptr %0, ptr %4, align 8
  store ptr %1, ptr %5, align 8
  %6 = load ptr, ptr %5, align 8
  %7 = call noundef zeroext i1 @_ZN4pkpy12is_small_intEPNS_8PyObjectE(ptr noundef %6) #3
  br i1 %7, label %8, label %9

8:                                                ; preds = %2
  br label %12

9:                                                ; preds = %2
  %10 = load ptr, ptr %5, align 8
  %11 = getelementptr inbounds %"struct.pkpy::PyObject", ptr %10, i32 0, i32 3
  br label %12

12:                                               ; preds = %9, %8
  %13 = phi ptr [ @_ZN4pkpy2VM6tp_intE, %8 ], [ %11, %9 ]
  call void @llvm.memcpy.p0.p0.i64(ptr align 2 %3, ptr align 2 %13, i64 2, i1 false)
  %14 = getelementptr inbounds %"struct.pkpy::Type", ptr %3, i32 0, i32 0
  %15 = load i16, ptr %14, align 2
  ret i16 %15
}

; Function Attrs: mustprogress uwtable
define linkonce_odr noundef zeroext i1 @_ZN4pkpy7is_typeEPNS_8PyObjectENS_4TypeE(ptr noundef %0, i16 %1) #4 comdat {
  %3 = alloca %"struct.pkpy::Type", align 2
  %4 = alloca ptr, align 8
  %5 = alloca %"struct.pkpy::Type", align 2
  %6 = getelementptr inbounds %"struct.pkpy::Type", ptr %3, i32 0, i32 0
  store i16 %1, ptr %6, align 2
  store ptr %0, ptr %4, align 8
  %7 = load ptr, ptr %4, align 8
  %8 = call noundef zeroext i1 @_ZN4pkpy12is_small_intEPNS_8PyObjectE(ptr noundef %7) #3
  br i1 %8, label %9, label %14

9:                                                ; preds = %2
  %10 = getelementptr inbounds %"struct.pkpy::Type", ptr %3, i32 0, i32 0
  %11 = load i16, ptr %10, align 2
  %12 = sext i16 %11 to i32
  %13 = icmp eq i32 %12, 2
  br label %20

14:                                               ; preds = %2
  %15 = load ptr, ptr %4, align 8
  %16 = getelementptr inbounds %"struct.pkpy::PyObject", ptr %15, i32 0, i32 3
  call void @llvm.memcpy.p0.p0.i64(ptr align 2 %5, ptr align 2 %3, i64 2, i1 false)
  %17 = getelementptr inbounds %"struct.pkpy::Type", ptr %5, i32 0, i32 0
  %18 = load i16, ptr %17, align 2
  %19 = call noundef zeroext i1 @_ZNK4pkpy4TypeeqES0_(ptr noundef nonnull align 2 dereferenceable(2) %16, i16 %18)
  br label %20

20:                                               ; preds = %14, %9
  %21 = phi i1 [ %13, %9 ], [ %19, %14 ]
  ret i1 %21
}

; Function Attrs: mustprogress uwtable
define linkonce_odr void @_ZN4pkpy2VM10check_typeEPNS_8PyObjectENS_4TypeE(ptr noundef nonnull align 8 dereferenceable(264913) %0, ptr noundef %1, i16 %2) #4 comdat align 2 {
  %4 = alloca %"struct.pkpy::Type", align 2
  %5 = alloca ptr, align 8
  %6 = alloca ptr, align 8
  %7 = alloca %"struct.pkpy::Type", align 2
  %8 = alloca %"struct.pkpy::Type", align 2
  %9 = alloca %"struct.pkpy::Type", align 2
  %10 = getelementptr inbounds %"struct.pkpy::Type", ptr %4, i32 0, i32 0
  store i16 %2, ptr %10, align 2
  store ptr %0, ptr %5, align 8
  store ptr %1, ptr %6, align 8
  %11 = load ptr, ptr %5, align 8
  %12 = load ptr, ptr %6, align 8
  call void @llvm.memcpy.p0.p0.i64(ptr align 2 %7, ptr align 2 %4, i64 2, i1 false)
  %13 = getelementptr inbounds %"struct.pkpy::Type", ptr %7, i32 0, i32 0
  %14 = load i16, ptr %13, align 2
  %15 = call noundef zeroext i1 @_ZN4pkpy7is_typeEPNS_8PyObjectENS_4TypeE(ptr noundef %12, i16 %14)
  br i1 %15, label %24, label %16

16:                                               ; preds = %3
  call void @llvm.memcpy.p0.p0.i64(ptr align 2 %8, ptr align 2 %4, i64 2, i1 false)
  %17 = load ptr, ptr %6, align 8
  %18 = call i16 @_ZN4pkpy2VM3_tpEPNS_8PyObjectE(ptr noundef nonnull align 8 dereferenceable(264913) %11, ptr noundef %17)
  %19 = getelementptr inbounds %"struct.pkpy::Type", ptr %9, i32 0, i32 0
  store i16 %18, ptr %19, align 2
  %20 = getelementptr inbounds %"struct.pkpy::Type", ptr %8, i32 0, i32 0
  %21 = load i16, ptr %20, align 2
  %22 = getelementptr inbounds %"struct.pkpy::Type", ptr %9, i32 0, i32 0
  %23 = load i16, ptr %22, align 2
  call void @_ZN4pkpy2VM9TypeErrorENS_4TypeES1_(ptr noundef nonnull align 8 dereferenceable(264913) %11, i16 %21, i16 %23)
  br label %24

24:                                               ; preds = %16, %3
  ret void
}

; Function Attrs: mustprogress uwtable
define linkonce_odr noundef nonnull align 8 dereferenceable(24) ptr @_ZN4pkpy18_py_cast__internalIRNS_5SliceELb1EEET_PNS_2VMEPNS_8PyObjectE(ptr noundef %0, ptr noundef %1) #4 comdat {
  %3 = alloca ptr, align 8
  %4 = alloca ptr, align 8
  %5 = alloca %"struct.pkpy::Type", align 2
  %6 = alloca %"struct.pkpy::Type", align 2
  store ptr %0, ptr %3, align 8
  store ptr %1, ptr %4, align 8
  call void @llvm.memcpy.p0.p0.i64(ptr align 2 %5, ptr align 2 @__const._ZN4pkpy18_py_cast__internalIRNS_5SliceELb1EEET_PNS_2VMEPNS_8PyObjectE.const_type, i64 2, i1 false)
  %7 = load ptr, ptr %3, align 8
  %8 = load ptr, ptr %4, align 8
  call void @llvm.memcpy.p0.p0.i64(ptr align 2 %6, ptr align 2 %5, i64 2, i1 false)
  %9 = getelementptr inbounds %"struct.pkpy::Type", ptr %6, i32 0, i32 0
  %10 = load i16, ptr %9, align 2
  call void @_ZN4pkpy2VM10check_typeEPNS_8PyObjectENS_4TypeE(ptr noundef nonnull align 8 dereferenceable(264913) %7, ptr noundef %8, i16 %10)
  %11 = load ptr, ptr %4, align 8
  %12 = getelementptr inbounds %"struct.pkpy::Py_.633", ptr %11, i32 0, i32 1
  ret ptr %12
}

; Function Attrs: mustprogress uwtable
define linkonce_odr noundef nonnull align 8 dereferenceable(24) ptr @_ZN4pkpy7py_castIRNS_5SliceEEET_PNS_2VMEPNS_8PyObjectE(ptr noundef %0, ptr noundef %1) #4 comdat {
  %3 = alloca ptr, align 8
  %4 = alloca ptr, align 8
  store ptr %0, ptr %3, align 8
  store ptr %1, ptr %4, align 8
  %5 = load ptr, ptr %3, align 8
  %6 = load ptr, ptr %4, align 8
  %7 = call noundef nonnull align 8 dereferenceable(24) ptr @_ZN4pkpy18_py_cast__internalIRNS_5SliceELb1EEET_PNS_2VMEPNS_8PyObjectE(ptr noundef %5, ptr noundef %6)
  ret ptr %7
}

; Function Attrs: mustprogress nounwind uwtable
define linkonce_odr noundef ptr @_ZNK4pkpy8ArgsViewixEi(ptr noundef nonnull align 8 dereferenceable(16) %0, i32 noundef %1) #5 comdat align 2 {
  %3 = alloca ptr, align 8
  %4 = alloca i32, align 4
  store ptr %0, ptr %3, align 8
  store i32 %1, ptr %4, align 4
  %5 = load ptr, ptr %3, align 8
  %6 = getelementptr inbounds %"struct.pkpy::ArgsView", ptr %5, i32 0, i32 0
  %7 = load ptr, ptr %6, align 8
  %8 = load i32, ptr %4, align 4
  %9 = sext i32 %8 to i64
  %10 = getelementptr inbounds ptr, ptr %7, i64 %9
  %11 = load ptr, ptr %10, align 8
  ret ptr %11
}

; Function Attrs: mustprogress uwtable
define internal noundef ptr @"_ZZN4pkpy2VM25__post_init_builtin_typesEvENK4$_13clEPS0_NS_8ArgsViewE"(ptr noundef nonnull align 1 dereferenceable(1) %0, ptr noundef %1, ptr %2, ptr %3) #4 align 2 {
  %5 = alloca %"struct.pkpy::ArgsView", align 8
  %6 = alloca ptr, align 8
  %7 = alloca ptr, align 8
  %8 = getelementptr inbounds { ptr, ptr }, ptr %5, i32 0, i32 0
  store ptr %2, ptr %8, align 8
  %9 = getelementptr inbounds { ptr, ptr }, ptr %5, i32 0, i32 1
  store ptr %3, ptr %9, align 8
  store ptr %0, ptr %6, align 8
  store ptr %1, ptr %7, align 8
  %10 = load ptr, ptr %7, align 8
  %11 = call noundef ptr @_ZNK4pkpy8ArgsViewixEi(ptr noundef nonnull align 8 dereferenceable(16) %5, i32 noundef 0)
  %12 = call noundef nonnull align 8 dereferenceable(24) ptr @_ZN4pkpy7py_castIRNS_5SliceEEET_PNS_2VMEPNS_8PyObjectE(ptr noundef %10, ptr noundef %11)
  %13 = getelementptr inbounds %"struct.pkpy::Slice", ptr %12, i32 0, i32 1
  %14 = load ptr, ptr %13, align 8
  ret ptr %14
}

; Function Attrs: mustprogress uwtable
define internal noundef ptr @"_ZZN4pkpy2VM25__post_init_builtin_typesEvEN4$_138__invokeEPS0_NS_8ArgsViewE"(ptr noundef %0, ptr %1, ptr %2) #4 align 2 {
  %4 = alloca %"struct.pkpy::ArgsView", align 8
  %5 = alloca ptr, align 8
  %6 = alloca %class.anon.492, align 1
  %7 = getelementptr inbounds { ptr, ptr }, ptr %4, i32 0, i32 0
  store ptr %1, ptr %7, align 8
  %8 = getelementptr inbounds { ptr, ptr }, ptr %4, i32 0, i32 1
  store ptr %2, ptr %8, align 8
  store ptr %0, ptr %5, align 8
  %9 = load ptr, ptr %5, align 8
  %10 = getelementptr inbounds { ptr, ptr }, ptr %4, i32 0, i32 0
  %11 = load ptr, ptr %10, align 8
  %12 = getelementptr inbounds { ptr, ptr }, ptr %4, i32 0, i32 1
  %13 = load ptr, ptr %12, align 8
  %14 = call noundef ptr @"_ZZN4pkpy2VM25__post_init_builtin_typesEvENK4$_13clEPS0_NS_8ArgsViewE"(ptr noundef nonnull align 1 dereferenceable(1) %6, ptr noundef %9, ptr %11, ptr %13)
  ret ptr %14
}