; Function Attrs: mustprogress uwtable
define internal noundef ptr @"_ZZN4pkpy2VM25__post_init_builtin_typesEvEN4$_138__invokeEPS0_NS_8ArgsViewE"(ptr noundef %0, ptr nocapture readonly %1, ptr nocapture readnone %2) #4 align 2 {
  %4 = load ptr, ptr %1, align 8
  %5 = ptrtoint ptr %4 to i64
  %6 = and i64 %5, 3
  %7 = icmp eq i64 %6, 2
  br i1 %7, label %11, label %_ZN4pkpy7is_typeEPNS_8PyObjectENS_4TypeE.exit.i.i.i.i

_ZN4pkpy7is_typeEPNS_8PyObjectENS_4TypeE.exit.i.i.i.i: ; preds = %3
  %8 = getelementptr inbounds i8, ptr %4, i64 10
  %9 = load i16, ptr %8, align 2
  %10 = icmp eq i16 %9, 8
  br i1 %10, label %"_ZZN4pkpy2VM25__post_init_builtin_typesEvENK4$_13clEPS0_NS_8ArgsViewE.exit", label %11

11:                                               ; preds = %_ZN4pkpy7is_typeEPNS_8PyObjectENS_4TypeE.exit.i.i.i.i, %3
  %12 = getelementptr inbounds i8, ptr %4, i64 10
  %13 = select i1 %7, ptr @_ZN4pkpy2VM6tp_intE, ptr %12
  %.sroa.0.0.copyload.i.i.i.i.i = load i16, ptr %13, align 2
  tail call void @_ZN4pkpy2VM9TypeErrorENS_4TypeES1_(ptr noundef nonnull align 8 dereferenceable(264913) %0, i16 8, i16 %.sroa.0.0.copyload.i.i.i.i.i)
  br label %"_ZZN4pkpy2VM25__post_init_builtin_typesEvENK4$_13clEPS0_NS_8ArgsViewE.exit"

"_ZZN4pkpy2VM25__post_init_builtin_typesEvENK4$_13clEPS0_NS_8ArgsViewE.exit": ; preds = %_ZN4pkpy7is_typeEPNS_8PyObjectENS_4TypeE.exit.i.i.i.i, %11
  %14 = getelementptr inbounds i8, ptr %4, i64 32
  %15 = load ptr, ptr %14, align 8
  ret ptr %15
}